
./mul3:     file format elf64-x86-64


Disassembly of section .init:

0000000000001000 <_init>:
    1000:	f3 0f 1e fa          	endbr64
    1004:	48 83 ec 08          	sub    $0x8,%rsp
    1008:	48 8b 05 c1 2f 00 00 	mov    0x2fc1(%rip),%rax        # 3fd0 <__gmon_start__@Base>
    100f:	48 85 c0             	test   %rax,%rax
    1012:	74 02                	je     1016 <_init+0x16>
    1014:	ff d0                	call   *%rax
    1016:	48 83 c4 08          	add    $0x8,%rsp
    101a:	c3                   	ret

Disassembly of section .plt:

0000000000001020 <strlen@plt-0x10>:
    1020:	ff 35 ca 2f 00 00    	push   0x2fca(%rip)        # 3ff0 <_GLOBAL_OFFSET_TABLE_+0x8>
    1026:	ff 25 cc 2f 00 00    	jmp    *0x2fcc(%rip)        # 3ff8 <_GLOBAL_OFFSET_TABLE_+0x10>
    102c:	0f 1f 40 00          	nopl   0x0(%rax)

0000000000001030 <strlen@plt>:
    1030:	ff 25 ca 2f 00 00    	jmp    *0x2fca(%rip)        # 4000 <strlen@GLIBC_2.2.5>
    1036:	68 00 00 00 00       	push   $0x0
    103b:	e9 e0 ff ff ff       	jmp    1020 <_init+0x20>

0000000000001040 <printf@plt>:
    1040:	ff 25 c2 2f 00 00    	jmp    *0x2fc2(%rip)        # 4008 <printf@GLIBC_2.2.5>
    1046:	68 01 00 00 00       	push   $0x1
    104b:	e9 d0 ff ff ff       	jmp    1020 <_init+0x20>

0000000000001050 <__isoc99_scanf@plt>:
    1050:	ff 25 ba 2f 00 00    	jmp    *0x2fba(%rip)        # 4010 <__isoc99_scanf@GLIBC_2.7>
    1056:	68 02 00 00 00       	push   $0x2
    105b:	e9 c0 ff ff ff       	jmp    1020 <_init+0x20>

Disassembly of section .text:

0000000000001060 <_start>:
    1060:	f3 0f 1e fa          	endbr64
    1064:	31 ed                	xor    %ebp,%ebp
    1066:	49 89 d1             	mov    %rdx,%r9
    1069:	5e                   	pop    %rsi
    106a:	48 89 e2             	mov    %rsp,%rdx
    106d:	48 83 e4 f0          	and    $0xfffffffffffffff0,%rsp
    1071:	50                   	push   %rax
    1072:	54                   	push   %rsp
    1073:	45 31 c0             	xor    %r8d,%r8d
    1076:	31 c9                	xor    %ecx,%ecx
    1078:	48 8d 3d da 00 00 00 	lea    0xda(%rip),%rdi        # 1159 <main>
    107f:	ff 15 3b 2f 00 00    	call   *0x2f3b(%rip)        # 3fc0 <__libc_start_main@GLIBC_2.34>
    1085:	f4                   	hlt
    1086:	66 2e 0f 1f 84 00 00 	cs nopw 0x0(%rax,%rax,1)
    108d:	00 00 00 
    1090:	48 8d 3d 91 2f 00 00 	lea    0x2f91(%rip),%rdi        # 4028 <__TMC_END__>
    1097:	48 8d 05 8a 2f 00 00 	lea    0x2f8a(%rip),%rax        # 4028 <__TMC_END__>
    109e:	48 39 f8             	cmp    %rdi,%rax
    10a1:	74 15                	je     10b8 <_start+0x58>
    10a3:	48 8b 05 1e 2f 00 00 	mov    0x2f1e(%rip),%rax        # 3fc8 <_ITM_deregisterTMCloneTable@Base>
    10aa:	48 85 c0             	test   %rax,%rax
    10ad:	74 09                	je     10b8 <_start+0x58>
    10af:	ff e0                	jmp    *%rax
    10b1:	0f 1f 80 00 00 00 00 	nopl   0x0(%rax)
    10b8:	c3                   	ret
    10b9:	0f 1f 80 00 00 00 00 	nopl   0x0(%rax)
    10c0:	48 8d 3d 61 2f 00 00 	lea    0x2f61(%rip),%rdi        # 4028 <__TMC_END__>
    10c7:	48 8d 35 5a 2f 00 00 	lea    0x2f5a(%rip),%rsi        # 4028 <__TMC_END__>
    10ce:	48 29 fe             	sub    %rdi,%rsi
    10d1:	48 89 f0             	mov    %rsi,%rax
    10d4:	48 c1 ee 3f          	shr    $0x3f,%rsi
    10d8:	48 c1 f8 03          	sar    $0x3,%rax
    10dc:	48 01 c6             	add    %rax,%rsi
    10df:	48 d1 fe             	sar    $1,%rsi
    10e2:	74 14                	je     10f8 <_start+0x98>
    10e4:	48 8b 05 ed 2e 00 00 	mov    0x2eed(%rip),%rax        # 3fd8 <_ITM_registerTMCloneTable@Base>
    10eb:	48 85 c0             	test   %rax,%rax
    10ee:	74 08                	je     10f8 <_start+0x98>
    10f0:	ff e0                	jmp    *%rax
    10f2:	66 0f 1f 44 00 00    	nopw   0x0(%rax,%rax,1)
    10f8:	c3                   	ret
    10f9:	0f 1f 80 00 00 00 00 	nopl   0x0(%rax)
    1100:	f3 0f 1e fa          	endbr64
    1104:	80 3d 1d 2f 00 00 00 	cmpb   $0x0,0x2f1d(%rip)        # 4028 <__TMC_END__>
    110b:	75 33                	jne    1140 <_start+0xe0>
    110d:	55                   	push   %rbp
    110e:	48 83 3d ca 2e 00 00 	cmpq   $0x0,0x2eca(%rip)        # 3fe0 <__cxa_finalize@GLIBC_2.2.5>
    1115:	00 
    1116:	48 89 e5             	mov    %rsp,%rbp
    1119:	74 0d                	je     1128 <_start+0xc8>
    111b:	48 8b 3d fe 2e 00 00 	mov    0x2efe(%rip),%rdi        # 4020 <__dso_handle>
    1122:	ff 15 b8 2e 00 00    	call   *0x2eb8(%rip)        # 3fe0 <__cxa_finalize@GLIBC_2.2.5>
    1128:	e8 63 ff ff ff       	call   1090 <_start+0x30>
    112d:	c6 05 f4 2e 00 00 01 	movb   $0x1,0x2ef4(%rip)        # 4028 <__TMC_END__>
    1134:	5d                   	pop    %rbp
    1135:	c3                   	ret
    1136:	66 2e 0f 1f 84 00 00 	cs nopw 0x0(%rax,%rax,1)
    113d:	00 00 00 
    1140:	c3                   	ret
    1141:	66 66 2e 0f 1f 84 00 	data16 cs nopw 0x0(%rax,%rax,1)
    1148:	00 00 00 00 
    114c:	0f 1f 40 00          	nopl   0x0(%rax)
    1150:	f3 0f 1e fa          	endbr64
    1154:	e9 67 ff ff ff       	jmp    10c0 <_start+0x60>

0000000000001159 <main>:
    1159:	55                   	push   %rbp
    115a:	48 89 e5             	mov    %rsp,%rbp
    115d:	48 83 ec 30          	sub    $0x30,%rsp
    1161:	89 7d dc             	mov    %edi,-0x24(%rbp)
    1164:	48 89 75 d0          	mov    %rsi,-0x30(%rbp)
    1168:	48 8d 05 95 0e 00 00 	lea    0xe95(%rip),%rax        # 2004 <_IO_stdin_used+0x4>
    116f:	48 89 c7             	mov    %rax,%rdi
    1172:	b8 00 00 00 00       	mov    $0x0,%eax
    1177:	e8 c4 fe ff ff       	call   1040 <printf@plt>
    117c:	48 8b 45 f8          	mov    -0x8(%rbp),%rax
    1180:	48 89 c6             	mov    %rax,%rsi
    1183:	48 8d 05 8b 0e 00 00 	lea    0xe8b(%rip),%rax        # 2015 <_IO_stdin_used+0x15>
    118a:	48 89 c7             	mov    %rax,%rdi
    118d:	b8 00 00 00 00       	mov    $0x0,%eax
    1192:	e8 b9 fe ff ff       	call   1050 <__isoc99_scanf@plt>
    1197:	48 8b 45 f8          	mov    -0x8(%rbp),%rax
    119b:	48 89 c7             	mov    %rax,%rdi
    119e:	e8 8d fe ff ff       	call   1030 <strlen@plt>
    11a3:	89 45 f0             	mov    %eax,-0x10(%rbp)
    11a6:	c7 45 e0 00 00 00 00 	movl   $0x0,-0x20(%rbp)
    11ad:	c7 45 e4 00 00 00 00 	movl   $0x0,-0x1c(%rbp)
    11b4:	e9 8d 00 00 00       	jmp    1246 <main+0xed>
    11b9:	8b 45 f0             	mov    -0x10(%rbp),%eax
    11bc:	2b 45 e4             	sub    -0x1c(%rbp),%eax
    11bf:	48 98                	cltq
    11c1:	48 8d 50 ff          	lea    -0x1(%rax),%rdx
    11c5:	48 8b 45 f8          	mov    -0x8(%rbp),%rax
    11c9:	48 01 d0             	add    %rdx,%rax
    11cc:	0f b6 00             	movzbl (%rax),%eax
    11cf:	0f be c0             	movsbl %al,%eax
    11d2:	83 e8 30             	sub    $0x30,%eax
    11d5:	89 45 f4             	mov    %eax,-0xc(%rbp)
    11d8:	c7 45 e8 01 00 00 00 	movl   $0x1,-0x18(%rbp)
    11df:	c7 45 ec 00 00 00 00 	movl   $0x0,-0x14(%rbp)
    11e6:	eb 13                	jmp    11fb <main+0xa2>
    11e8:	8b 55 e8             	mov    -0x18(%rbp),%edx
    11eb:	89 d0                	mov    %edx,%eax
    11ed:	c1 e0 02             	shl    $0x2,%eax
    11f0:	01 d0                	add    %edx,%eax
    11f2:	01 c0                	add    %eax,%eax
    11f4:	89 45 e8             	mov    %eax,-0x18(%rbp)
    11f7:	83 45 ec 01          	addl   $0x1,-0x14(%rbp)
    11fb:	8b 45 ec             	mov    -0x14(%rbp),%eax
    11fe:	3b 45 e4             	cmp    -0x1c(%rbp),%eax
    1201:	7c e5                	jl     11e8 <main+0x8f>
    1203:	8b 55 e8             	mov    -0x18(%rbp),%edx
    1206:	8b 45 f4             	mov    -0xc(%rbp),%eax
    1209:	89 c6                	mov    %eax,%esi
    120b:	48 8d 05 06 0e 00 00 	lea    0xe06(%rip),%rax        # 2018 <_IO_stdin_used+0x18>
    1212:	48 89 c7             	mov    %rax,%rdi
    1215:	b8 00 00 00 00       	mov    $0x0,%eax
    121a:	e8 21 fe ff ff       	call   1040 <printf@plt>
    121f:	8b 45 f4             	mov    -0xc(%rbp),%eax
    1222:	0f af 45 e8          	imul   -0x18(%rbp),%eax
    1226:	01 45 e0             	add    %eax,-0x20(%rbp)
    1229:	8b 45 e0             	mov    -0x20(%rbp),%eax
    122c:	89 c6                	mov    %eax,%esi
    122e:	48 8d 05 fa 0d 00 00 	lea    0xdfa(%rip),%rax        # 202f <_IO_stdin_used+0x2f>
    1235:	48 89 c7             	mov    %rax,%rdi
    1238:	b8 00 00 00 00       	mov    $0x0,%eax
    123d:	e8 fe fd ff ff       	call   1040 <printf@plt>
    1242:	83 45 e4 01          	addl   $0x1,-0x1c(%rbp)
    1246:	8b 45 e4             	mov    -0x1c(%rbp),%eax
    1249:	3b 45 f0             	cmp    -0x10(%rbp),%eax
    124c:	0f 8c 67 ff ff ff    	jl     11b9 <main+0x60>
    1252:	b8 00 00 00 00       	mov    $0x0,%eax
    1257:	c9                   	leave
    1258:	c3                   	ret

Disassembly of section .fini:

000000000000125c <_fini>:
    125c:	f3 0f 1e fa          	endbr64
    1260:	48 83 ec 08          	sub    $0x8,%rsp
    1264:	48 83 c4 08          	add    $0x8,%rsp
    1268:	c3                   	ret
